; ModuleID = 'source-C-CXX/41/103.cpp'
source_filename = "source-C-CXX/41/103.cpp"
target datalayout = "e-m:e-p270:32:32-p271:32:32-p272:64:64-i64:64-f80:128-n8:16:32:64-S128"
target triple = "x86_64-pc-linux-gnu"

%"class.std::ios_base::Init" = type { i8 }
%"class.std::basic_istream" = type { i32 (...)**, i64, %"class.std::basic_ios" }
%"class.std::basic_ios" = type { %"class.std::ios_base", %"class.std::basic_ostream"*, i8, i8, %"class.std::basic_streambuf"*, %"class.std::ctype"*, %"class.std::num_put"*, %"class.std::num_get"* }
%"class.std::ios_base" = type { i32 (...)**, i64, i64, i32, i32, i32, %"struct.std::ios_base::_Callback_list"*, %"struct.std::ios_base::_Words", [8 x %"struct.std::ios_base::_Words"], i32, %"struct.std::ios_base::_Words"*, %"class.std::locale" }
%"struct.std::ios_base::_Callback_list" = type { %"struct.std::ios_base::_Callback_list"*, void (i32, %"class.std::ios_base"*, i32)*, i32, i32 }
%"struct.std::ios_base::_Words" = type { i8*, i64 }
%"class.std::locale" = type { %"class.std::locale::_Impl"* }
%"class.std::locale::_Impl" = type { i32, %"class.std::locale::facet"**, i64, %"class.std::locale::facet"**, i8** }
%"class.std::locale::facet" = type <{ i32 (...)**, i32, [4 x i8] }>
%"class.std::basic_ostream" = type { i32 (...)**, %"class.std::basic_ios" }
%"class.std::basic_streambuf" = type { i32 (...)**, i8*, i8*, i8*, i8*, i8*, i8*, %"class.std::locale" }
%"class.std::ctype" = type <{ %"class.std::locale::facet.base", [4 x i8], %struct.__locale_struct*, i8, [7 x i8], i32*, i32*, i16*, i8, [256 x i8], [256 x i8], i8, [6 x i8] }>
%"class.std::locale::facet.base" = type <{ i32 (...)**, i32 }>
%struct.__locale_struct = type { [13 x %struct.__locale_data*], i16*, i32*, i32*, [13 x i8*] }
%struct.__locale_data = type opaque
%"class.std::num_put" = type { %"class.std::locale::facet.base", [4 x i8] }
%"class.std::num_get" = type { %"class.std::locale::facet.base", [4 x i8] }

@_ZStL8__ioinit = internal global %"class.std::ios_base::Init" zeroinitializer, align 1
@__dso_handle = external hidden global i8
@_ZSt3cin = external global %"class.std::basic_istream", align 8
@_ZSt4cout = external global %"class.std::basic_ostream", align 8
@.str = private unnamed_addr constant [2 x i8] c" \00", align 1
@llvm.global_ctors = appending global [1 x { i32, void ()*, i8* }] [{ i32, void ()*, i8* } { i32 65535, void ()* @_GLOBAL__sub_I_103.cpp, i8* null }]

declare void @_ZNSt8ios_base4InitC1Ev(%"class.std::ios_base::Init"* nonnull align 1 dereferenceable(1)) unnamed_addr #0

; Function Attrs: nounwind
declare void @_ZNSt8ios_base4InitD1Ev(%"class.std::ios_base::Init"* nonnull align 1 dereferenceable(1)) unnamed_addr #1

; Function Attrs: nofree nounwind
declare i32 @__cxa_atexit(void (i8*)*, i8*, i8*) local_unnamed_addr #2

; Function Attrs: mustprogress norecurse sspstrong uwtable
define dso_local i32 @main() local_unnamed_addr #3 {
  %1 = alloca i32, align 4
  %2 = alloca i32, align 4
  %3 = alloca [100001 x i32], align 16
  %4 = bitcast i32* %1 to i8*
  call void @llvm.lifetime.start.p0i8(i64 4, i8* nonnull %4) #6
  %5 = bitcast i32* %2 to i8*
  call void @llvm.lifetime.start.p0i8(i64 4, i8* nonnull %5) #6
  %6 = bitcast [100001 x i32]* %3 to i8*
  call void @llvm.lifetime.start.p0i8(i64 400004, i8* nonnull %6) #6
  %7 = call nonnull align 8 dereferenceable(16) %"class.std::basic_istream"* @_ZNSirsERi(%"class.std::basic_istream"* nonnull align 8 dereferenceable(16) @_ZSt3cin, i32* nonnull align 4 dereferenceable(4) %1)
  %8 = load i32, i32* %1, align 4, !tbaa !5
  %9 = icmp slt i32 %8, 1
  br i1 %9, label %18, label %10

10:                                               ; preds = %0, %10
  %11 = phi i64 [ %14, %10 ], [ 1, %0 ]
  %12 = getelementptr inbounds [100001 x i32], [100001 x i32]* %3, i64 0, i64 %11
  %13 = call nonnull align 8 dereferenceable(16) %"class.std::basic_istream"* @_ZNSirsERi(%"class.std::basic_istream"* nonnull align 8 dereferenceable(16) @_ZSt3cin, i32* nonnull align 4 dereferenceable(4) %12)
  %14 = add nuw nsw i64 %11, 1
  %15 = load i32, i32* %1, align 4, !tbaa !5
  %16 = sext i32 %15 to i64
  %17 = icmp slt i64 %11, %16
  br i1 %17, label %10, label %18, !llvm.loop !9

18:                                               ; preds = %10, %0
  %19 = call nonnull align 8 dereferenceable(16) %"class.std::basic_istream"* @_ZNSirsERi(%"class.std::basic_istream"* nonnull align 8 dereferenceable(16) @_ZSt3cin, i32* nonnull align 4 dereferenceable(4) %2)
  %20 = load i32, i32* %1, align 4, !tbaa !5
  %21 = load i32, i32* %2, align 4
  %22 = icmp slt i32 %20, 1
  br i1 %22, label %93, label %23

23:                                               ; preds = %18
  %24 = zext i32 %20 to i64
  %25 = and i64 %24, 1
  %26 = icmp eq i32 %20, 1
  br i1 %26, label %29, label %27

27:                                               ; preds = %23
  %28 = and i64 %24, 4294967294
  br label %48

29:                                               ; preds = %100, %23
  %30 = phi i32 [ undef, %23 ], [ %102, %100 ]
  %31 = phi i64 [ 1, %23 ], [ %103, %100 ]
  %32 = phi i32 [ 0, %23 ], [ %102, %100 ]
  %33 = phi i32 [ 0, %23 ], [ %101, %100 ]
  %34 = icmp eq i64 %25, 0
  br i1 %34, label %45, label %35

35:                                               ; preds = %29
  %36 = getelementptr inbounds [100001 x i32], [100001 x i32]* %3, i64 0, i64 %31
  %37 = load i32, i32* %36, align 4, !tbaa !5
  %38 = icmp eq i32 %37, %21
  br i1 %38, label %43, label %39

39:                                               ; preds = %35
  %40 = add nsw i32 %33, 1
  %41 = sext i32 %40 to i64
  %42 = getelementptr inbounds [100001 x i32], [100001 x i32]* %3, i64 0, i64 %41
  store i32 %37, i32* %42, align 4, !tbaa !5
  br label %45

43:                                               ; preds = %35
  %44 = add nsw i32 %32, 1
  br label %45

45:                                               ; preds = %43, %39, %29
  %46 = phi i32 [ %30, %29 ], [ %32, %39 ], [ %44, %43 ]
  %47 = icmp sgt i32 %20, %46
  br i1 %47, label %69, label %93

48:                                               ; preds = %100, %27
  %49 = phi i64 [ 1, %27 ], [ %103, %100 ]
  %50 = phi i32 [ 0, %27 ], [ %102, %100 ]
  %51 = phi i32 [ 0, %27 ], [ %101, %100 ]
  %52 = phi i64 [ %28, %27 ], [ %104, %100 ]
  %53 = getelementptr inbounds [100001 x i32], [100001 x i32]* %3, i64 0, i64 %49
  %54 = load i32, i32* %53, align 4, !tbaa !5
  %55 = icmp eq i32 %54, %21
  br i1 %55, label %60, label %56

56:                                               ; preds = %48
  %57 = add nsw i32 %51, 1
  %58 = sext i32 %57 to i64
  %59 = getelementptr inbounds [100001 x i32], [100001 x i32]* %3, i64 0, i64 %58
  store i32 %54, i32* %59, align 4, !tbaa !5
  br label %62

60:                                               ; preds = %48
  %61 = add nsw i32 %50, 1
  br label %62

62:                                               ; preds = %56, %60
  %63 = phi i32 [ %57, %56 ], [ %51, %60 ]
  %64 = phi i32 [ %50, %56 ], [ %61, %60 ]
  %65 = add nuw nsw i64 %49, 1
  %66 = getelementptr inbounds [100001 x i32], [100001 x i32]* %3, i64 0, i64 %65
  %67 = load i32, i32* %66, align 4, !tbaa !5
  %68 = icmp eq i32 %67, %21
  br i1 %68, label %98, label %94

69:                                               ; preds = %45, %90
  %70 = phi i32 [ %92, %90 ], [ %21, %45 ]
  %71 = phi i64 [ %91, %90 ], [ 1, %45 ]
  %72 = phi i32 [ %85, %90 ], [ 0, %45 ]
  %73 = getelementptr inbounds [100001 x i32], [100001 x i32]* %3, i64 0, i64 %71
  %74 = load i32, i32* %73, align 4, !tbaa !5
  %75 = icmp eq i32 %74, %70
  br i1 %75, label %84, label %76

76:                                               ; preds = %69
  %77 = icmp eq i32 %72, 0
  br i1 %77, label %81, label %78

78:                                               ; preds = %76
  %79 = call nonnull align 8 dereferenceable(8) %"class.std::basic_ostream"* @_ZSt16__ostream_insertIcSt11char_traitsIcEERSt13basic_ostreamIT_T0_ES6_PKS3_l(%"class.std::basic_ostream"* nonnull align 8 dereferenceable(8) @_ZSt4cout, i8* nonnull getelementptr inbounds ([2 x i8], [2 x i8]* @.str, i64 0, i64 0), i64 1)
  %80 = load i32, i32* %73, align 4, !tbaa !5
  br label %81

81:                                               ; preds = %76, %78
  %82 = phi i32 [ %80, %78 ], [ %74, %76 ]
  %83 = call nonnull align 8 dereferenceable(8) %"class.std::basic_ostream"* @_ZNSolsEi(%"class.std::basic_ostream"* nonnull align 8 dereferenceable(8) @_ZSt4cout, i32 %82)
  br label %84

84:                                               ; preds = %81, %69
  %85 = phi i32 [ %72, %69 ], [ 1, %81 ]
  %86 = load i32, i32* %1, align 4, !tbaa !5
  %87 = sub nsw i32 %86, %46
  %88 = sext i32 %87 to i64
  %89 = icmp slt i64 %71, %88
  br i1 %89, label %90, label %93, !llvm.loop !11

90:                                               ; preds = %84
  %91 = add nuw nsw i64 %71, 1
  %92 = load i32, i32* %2, align 4, !tbaa !5
  br label %69

93:                                               ; preds = %84, %18, %45
  call void @llvm.lifetime.end.p0i8(i64 400004, i8* nonnull %6) #6
  call void @llvm.lifetime.end.p0i8(i64 4, i8* nonnull %5) #6
  call void @llvm.lifetime.end.p0i8(i64 4, i8* nonnull %4) #6
  ret i32 0

94:                                               ; preds = %62
  %95 = add nsw i32 %63, 1
  %96 = sext i32 %95 to i64
  %97 = getelementptr inbounds [100001 x i32], [100001 x i32]* %3, i64 0, i64 %96
  store i32 %67, i32* %97, align 4, !tbaa !5
  br label %100

98:                                               ; preds = %62
  %99 = add nsw i32 %64, 1
  br label %100

100:                                              ; preds = %98, %94
  %101 = phi i32 [ %95, %94 ], [ %63, %98 ]
  %102 = phi i32 [ %64, %94 ], [ %99, %98 ]
  %103 = add nuw nsw i64 %49, 2
  %104 = add i64 %52, -2
  %105 = icmp eq i64 %104, 0
  br i1 %105, label %29, label %48, !llvm.loop !12
}

; Function Attrs: argmemonly mustprogress nofree nosync nounwind willreturn
declare void @llvm.lifetime.start.p0i8(i64 immarg, i8* nocapture) #4

declare nonnull align 8 dereferenceable(16) %"class.std::basic_istream"* @_ZNSirsERi(%"class.std::basic_istream"* nonnull align 8 dereferenceable(16), i32* nonnull align 4 dereferenceable(4)) local_unnamed_addr #0

declare nonnull align 8 dereferenceable(8) %"class.std::basic_ostream"* @_ZNSolsEi(%"class.std::basic_ostream"* nonnull align 8 dereferenceable(8), i32) local_unnamed_addr #0

; Function Attrs: argmemonly mustprogress nofree nosync nounwind willreturn
declare void @llvm.lifetime.end.p0i8(i64 immarg, i8* nocapture) #4

declare nonnull align 8 dereferenceable(8) %"class.std::basic_ostream"* @_ZSt16__ostream_insertIcSt11char_traitsIcEERSt13basic_ostreamIT_T0_ES6_PKS3_l(%"class.std::basic_ostream"* nonnull align 8 dereferenceable(8), i8*, i64) local_unnamed_addr #0

; Function Attrs: sspstrong uwtable
define internal void @_GLOBAL__sub_I_103.cpp() #5 section ".text.startup" {
  tail call void @_ZNSt8ios_base4InitC1Ev(%"class.std::ios_base::Init"* nonnull align 1 dereferenceable(1) @_ZStL8__ioinit)
  %1 = tail call i32 @__cxa_atexit(void (i8*)* bitcast (void (%"class.std::ios_base::Init"*)* @_ZNSt8ios_base4InitD1Ev to void (i8*)*), i8* getelementptr inbounds (%"class.std::ios_base::Init", %"class.std::ios_base::Init"* @_ZStL8__ioinit, i64 0, i32 0), i8* nonnull @__dso_handle) #6
  ret void
}


!llvm.module.flags = !{!0, !1, !2, !3}
!llvm.ident = !{!4}

!0 = !{i32 1, !"wchar_size", i32 4}
!1 = !{i32 7, !"PIC Level", i32 2}
!2 = !{i32 7, !"PIE Level", i32 2}
!3 = !{i32 7, !"uwtable", i32 1}
!4 = !{!"clang version 13.0.0"}
!5 = !{!6, !6, i64 0}
!6 = !{!"int", !7, i64 0}
!7 = !{!"omnipotent char", !8, i64 0}
!8 = !{!"Simple C++ TBAA"}
!9 = distinct !{!9, !10}
!10 = !{!"llvm.loop.mustprogress"}
!11 = distinct !{!11, !10}
!12 = distinct !{!12, !10}
